target datalayout = "e-m:e-p270:32:32-p271:32:32-p272:64:64-i64:64-i128:128-f80:128-n8:16:32:64-S128"
target triple = "x86_64-pc-linux-gnu"

%struct.nstime_t = type { i64, i32 }
%struct._packet_info = type { ptr, ptr, i32, i32, %struct.nstime_t, %struct.nstime_t, %struct.nstime_t, i8, ptr, ptr, ptr, ptr, %struct._address, %struct._address, %struct._address, %struct._address, %struct._address, %struct._address, i32, ptr, i8, [3 x i8], %struct.anon, i32, i32, i32, i32, ptr, i8, ptr, ptr, i16, i16, i32, i32, i16, i32, i32, ptr, ptr, ptr, i8, i8, i16, i16, i16, i32, i16, i16, ptr, ptr, ptr, ptr, ptr, i32, i32 }
%struct._address = type { i32, i32, ptr, ptr }
%struct.anon = type { i8, [3 x i8] }

@hf_afp_pad = internal global i32 0, align 4
@hf_afp_passwd = internal global i32 0, align 4
@hf_afp_vol_bitmap = internal global i32 0, align 4
@hf_afp_vol_name = internal global i32 0, align 4
@ett_afp_vol_bitmap = internal global i32 0, align 4
@.str.1064 = private unnamed_addr constant [13 x i8] c"Unknown type\00", align 1
@.str.1071 = private unnamed_addr constant [5 x i8] c": %s\00", align 1

; Function Attrs: null_pointer_is_valid sspstrong uwtable
define internal ptr @get_name(ptr noundef %0, ptr noundef %1, i32 noundef %2, i32 noundef %3) #1 {
  %5 = alloca ptr, align 8
  %6 = alloca ptr, align 8
  %7 = alloca i32, align 4
  %8 = alloca i32, align 4
  %9 = alloca i32, align 4
  %10 = alloca ptr, align 8
  store ptr %0, ptr %5, align 8
  store ptr %1, ptr %6, align 8
  store i32 %2, ptr %7, align 4
  store i32 %3, ptr %8, align 4
  call void @llvm.lifetime.start.p0(i64 4, ptr %9) #8
  call void @llvm.lifetime.start.p0(i64 8, ptr %10) #8
  %11 = load i32, ptr %8, align 4
  switch i32 %11, label %37 [
    i32 1, label %12
    i32 2, label %12
    i32 3, label %24
  ]

12:                                               ; preds = %4, %4
  %13 = load ptr, ptr %6, align 8
  %14 = load i32, ptr %7, align 4
  %15 = call zeroext i8 @tvb_get_uint8(ptr noundef %13, i32 noundef %14)
  %16 = zext i8 %15 to i32
  store i32 %16, ptr %9, align 4
  %17 = load i32, ptr %7, align 4
  %18 = add i32 %17, 1
  store i32 %18, ptr %7, align 4
  %19 = load ptr, ptr %5, align 8
  %20 = load ptr, ptr %6, align 8
  %21 = load i32, ptr %7, align 4
  %22 = load i32, ptr %9, align 4
  %23 = call ptr @tvb_format_text(ptr noundef %19, ptr noundef %20, i32 noundef %21, i32 noundef %22)
  store ptr %23, ptr %10, align 8
  br label %38

24:                                               ; preds = %4
  %25 = load ptr, ptr %6, align 8
  %26 = load i32, ptr %7, align 4
  %27 = add i32 %26, 4
  %28 = call zeroext i16 @tvb_get_ntohs(ptr noundef %25, i32 noundef %27)
  %29 = zext i16 %28 to i32
  store i32 %29, ptr %9, align 4
  %30 = load i32, ptr %7, align 4
  %31 = add i32 %30, 6
  store i32 %31, ptr %7, align 4
  %32 = load ptr, ptr %5, align 8
  %33 = load ptr, ptr %6, align 8
  %34 = load i32, ptr %7, align 4
  %35 = load i32, ptr %9, align 4
  %36 = call ptr @tvb_format_text(ptr noundef %32, ptr noundef %33, i32 noundef %34, i32 noundef %35)
  store ptr %36, ptr %10, align 8
  br label %38

37:                                               ; preds = %4
  store ptr @.str.1064, ptr %10, align 8
  br label %38

38:                                               ; preds = %37, %24, %12
  %39 = load ptr, ptr %10, align 8
  call void @llvm.lifetime.end.p0(i64 8, ptr %10) #8
  call void @llvm.lifetime.end.p0(i64 4, ptr %9) #8
  ret ptr %39
}

; Function Attrs: null_pointer_is_valid sspstrong uwtable
define internal zeroext i16 @decode_vol_bitmap(ptr noundef %0, ptr noundef %1, i32 noundef %2) #1 {
  %4 = alloca ptr, align 8
  %5 = alloca ptr, align 8
  %6 = alloca i32, align 4
  %7 = alloca i16, align 2
  store ptr %0, ptr %4, align 8
  store ptr %1, ptr %5, align 8
  store i32 %2, ptr %6, align 4
  call void @llvm.lifetime.start.p0(i64 2, ptr %7) #8
  %8 = load ptr, ptr %4, align 8
  %9 = load ptr, ptr %5, align 8
  %10 = load i32, ptr %6, align 4
  %11 = load i32, ptr @hf_afp_vol_bitmap, align 4
  %12 = load i32, ptr @ett_afp_vol_bitmap, align 4
  %13 = call ptr @proto_tree_add_bitmask(ptr noundef %8, ptr noundef %9, i32 noundef %10, i32 noundef %11, i32 noundef %12, ptr noundef @decode_vol_bitmap.bitmaps, i32 noundef 0)
  %14 = load ptr, ptr %5, align 8
  %15 = load i32, ptr %6, align 4
  %16 = call zeroext i16 @tvb_get_ntohs(ptr noundef %14, i32 noundef %15)
  store i16 %16, ptr %7, align 2
  %17 = load i16, ptr %7, align 2
  call void @llvm.lifetime.end.p0(i64 2, ptr %7) #8
  ret i16 %17
}

; Function Attrs: null_pointer_is_valid sspstrong uwtable
define internal i32 @dissect_query_afp_open_vol(ptr noundef %0, ptr noundef %1, ptr noundef %2, i32 noundef %3) #1 {
  %5 = alloca i32, align 4
  %6 = alloca ptr, align 8
  %7 = alloca ptr, align 8
  %8 = alloca ptr, align 8
  %9 = alloca i32, align 4
  %10 = alloca i32, align 4
  %11 = alloca ptr, align 8
  %12 = alloca i32, align 4
  store ptr %0, ptr %6, align 8
  store ptr %1, ptr %7, align 8
  store ptr %2, ptr %8, align 8
  store i32 %3, ptr %9, align 4
  call void @llvm.lifetime.start.p0(i64 4, ptr %10) #8
  call void @llvm.lifetime.start.p0(i64 8, ptr %11) #8
  %13 = load ptr, ptr %8, align 8
  %14 = load i32, ptr @hf_afp_pad, align 4
  %15 = load ptr, ptr %6, align 8
  %16 = load i32, ptr %9, align 4
  %17 = call ptr @proto_tree_add_item(ptr noundef %13, i32 noundef %14, ptr noundef %15, i32 noundef %16, i32 noundef 1, i32 noundef 0)
  %18 = load i32, ptr %9, align 4
  %19 = add i32 %18, 1
  store i32 %19, ptr %9, align 4
  %20 = load ptr, ptr %8, align 8
  %21 = load ptr, ptr %6, align 8
  %22 = load i32, ptr %9, align 4
  %23 = call zeroext i16 @decode_vol_bitmap(ptr noundef %20, ptr noundef %21, i32 noundef %22)
  %24 = load i32, ptr %9, align 4
  %25 = add i32 %24, 2
  store i32 %25, ptr %9, align 4
  %26 = load ptr, ptr %6, align 8
  %27 = load i32, ptr %9, align 4
  %28 = call zeroext i8 @tvb_get_uint8(ptr noundef %26, i32 noundef %27)
  %29 = zext i8 %28 to i32
  store i32 %29, ptr %10, align 4
  %30 = load ptr, ptr %7, align 8
  %31 = getelementptr inbounds nuw %struct._packet_info, ptr %30, i32 0, i32 51
  %32 = load ptr, ptr %31, align 8
  %33 = load ptr, ptr %6, align 8
  %34 = load i32, ptr %9, align 4
  %35 = call ptr @get_name(ptr noundef %32, ptr noundef %33, i32 noundef %34, i32 noundef 2)
  store ptr %35, ptr %11, align 8
  %36 = load ptr, ptr %7, align 8
  %37 = getelementptr inbounds nuw %struct._packet_info, ptr %36, i32 0, i32 1
  %38 = load ptr, ptr %37, align 8
  %39 = load ptr, ptr %11, align 8
  call void (ptr, i32, ptr, ...) @col_append_fstr(ptr noundef %38, i32 noundef 25, ptr noundef @.str.1071, ptr noundef %39)
  %40 = load ptr, ptr %8, align 8
  %41 = icmp ne ptr %40, null
  br i1 %41, label %44, label %42

42:                                               ; preds = %4
  %43 = load i32, ptr %9, align 4
  store i32 %43, ptr %5, align 4
  store i32 1, ptr %12, align 4
  br label %69

44:                                               ; preds = %4
  %45 = load ptr, ptr %8, align 8
  %46 = load i32, ptr @hf_afp_vol_name, align 4
  %47 = load ptr, ptr %6, align 8
  %48 = load i32, ptr %9, align 4
  %49 = call ptr @proto_tree_add_item(ptr noundef %45, i32 noundef %46, ptr noundef %47, i32 noundef %48, i32 noundef 1, i32 noundef 2)
  %50 = load i32, ptr %10, align 4
  %51 = add i32 %50, 1
  %52 = load i32, ptr %9, align 4
  %53 = add i32 %52, %51
  store i32 %53, ptr %9, align 4
  %54 = load ptr, ptr %6, align 8
  %55 = load i32, ptr %9, align 4
  %56 = call i32 @tvb_reported_length_remaining(ptr noundef %54, i32 noundef %55)
  store i32 %56, ptr %10, align 4
  %57 = load i32, ptr %10, align 4
  %58 = icmp sge i32 %57, 8
  br i1 %58, label %59, label %67

59:                                               ; preds = %44
  %60 = load ptr, ptr %8, align 8
  %61 = load i32, ptr @hf_afp_passwd, align 4
  %62 = load ptr, ptr %6, align 8
  %63 = load i32, ptr %9, align 4
  %64 = call ptr @proto_tree_add_item(ptr noundef %60, i32 noundef %61, ptr noundef %62, i32 noundef %63, i32 noundef 8, i32 noundef 2)
  %65 = load i32, ptr %9, align 4
  %66 = add i32 %65, 8
  store i32 %66, ptr %9, align 4
  br label %67

67:                                               ; preds = %59, %44
  %68 = load i32, ptr %9, align 4
  store i32 %68, ptr %5, align 4
  store i32 1, ptr %12, align 4
  br label %69

69:                                               ; preds = %67, %42
  call void @llvm.lifetime.end.p0(i64 8, ptr %11) #8
  call void @llvm.lifetime.end.p0(i64 4, ptr %10) #8
  %70 = load i32, ptr %5, align 4
  ret i32 %70
}