; Function Attrs: null_pointer_is_valid sspstrong uwtable
define internal fastcc range(i32 4, 269) i32 @dissect_query_afp_open_vol(ptr noundef %0, ptr noundef readonly captures(none) %1, ptr noundef %2) unnamed_addr #1 {
  %4 = load i32, ptr @hf_afp_pad, align 4
  %5 = tail call ptr @proto_tree_add_item(ptr noundef %2, i32 noundef %4, ptr noundef %0, i32 noundef 1, i32 noundef 1, i32 noundef 0)
  %6 = load i32, ptr @hf_afp_vol_bitmap, align 4
  %7 = load i32, ptr @ett_afp_vol_bitmap, align 4
  %8 = tail call ptr @proto_tree_add_bitmask(ptr noundef %2, ptr noundef %0, i32 noundef 2, i32 noundef %6, i32 noundef %7, ptr noundef nonnull @decode_vol_bitmap.bitmaps, i32 noundef 0)
  %9 = tail call zeroext i16 @tvb_get_ntohs(ptr noundef %0, i32 noundef 2)
  %10 = tail call zeroext i8 @tvb_get_uint8(ptr noundef %0, i32 noundef 4)
  %11 = getelementptr inbounds nuw i8, ptr %1, i64 408
  %12 = load ptr, ptr %11, align 8
  %13 = tail call zeroext i8 @tvb_get_uint8(ptr noundef %0, i32 noundef 4)
  %14 = zext i8 %13 to i32
  %15 = tail call ptr @tvb_format_text(ptr noundef %12, ptr noundef %0, i32 noundef 5, i32 noundef %14)
  %16 = getelementptr inbounds nuw i8, ptr %1, i64 8
  %17 = load ptr, ptr %16, align 8
  tail call void (ptr, i32, ptr, ...) @col_append_fstr(ptr noundef %17, i32 noundef 25, ptr noundef nonnull @.str.1071, ptr noundef %15)
  %.not = icmp eq ptr %2, null
  br i1 %.not, label %29, label %18

18:                                               ; preds = %3
  %19 = zext i8 %10 to i32
  %20 = load i32, ptr @hf_afp_vol_name, align 4
  %21 = tail call ptr @proto_tree_add_item(ptr noundef nonnull %2, i32 noundef %20, ptr noundef %0, i32 noundef 4, i32 noundef 1, i32 noundef 2)
  %22 = add nuw nsw i32 %19, 5
  %23 = tail call i32 @tvb_reported_length_remaining(ptr noundef %0, i32 noundef %22)
  %24 = icmp sgt i32 %23, 7
  br i1 %24, label %25, label %29

25:                                               ; preds = %18
  %26 = load i32, ptr @hf_afp_passwd, align 4
  %27 = tail call ptr @proto_tree_add_item(ptr noundef nonnull %2, i32 noundef %26, ptr noundef %0, i32 noundef %22, i32 noundef 8, i32 noundef 2)
  %28 = add nuw nsw i32 %19, 13
  br label %29

29:                                               ; preds = %18, %25, %3
  %.0 = phi i32 [ 4, %3 ], [ %28, %25 ], [ %22, %18 ]
  ret i32 %.0
}